; Function Attrs: mustprogress uwtable
define noundef ptr @u_fopen_77(ptr noundef readonly captures(none) %0, ptr noundef readonly captures(none) %1, ptr noundef %2, ptr noundef %3) local_unnamed_addr #0 {
  %5 = tail call noalias ptr @fopen(ptr noundef %0, ptr noundef %1)
  %6 = icmp eq ptr %5, null
  br i1 %6, label %11, label %7

7:                                                ; preds = %4
  %8 = tail call fastcc noundef ptr @_ZL11finit_ownerP8_IO_FILEPKcS2_a(ptr noundef nonnull %5, ptr noundef %2, ptr noundef %3, i8 noundef signext 1)
  %.not = icmp eq ptr %8, null
  br i1 %.not, label %9, label %11

9:                                                ; preds = %7
  %10 = tail call i32 @fclose(ptr noundef nonnull %5)
  br label %11

11:                                               ; preds = %7, %9, %4
  %.0 = phi ptr [ null, %4 ], [ null, %9 ], [ %8, %7 ]
  ret ptr %.0
}